target datalayout = "e-m:e-p270:32:32-p271:32:32-p272:64:64-i64:64-i128:128-f80:128-n8:16:32:64-S128"
target triple = "x86_64-pc-linux-gnu"

%struct._php_stream = type { ptr, ptr, %struct._php_stream_filter_chain, %struct._php_stream_filter_chain, ptr, ptr, %struct._zval_struct, i16, [16 x i8], i32, ptr, ptr, ptr, ptr, i64, ptr, i64, i64, i64, i64, ptr }
%struct._php_stream_filter_chain = type { ptr, ptr, ptr }
%struct._zval_struct = type { %union._zend_value, %union.anon, %union.anon.2 }
%union._zend_value = type { i64 }
%union.anon = type { i32 }
%union.anon.2 = type { i32 }
%struct.php_stream_memory_data = type { ptr, i64, i32 }
%struct._zend_string = type { %struct._zend_refcounted_h, i64, i64, [1 x i8] }
%struct._zend_refcounted_h = type { i32, %union.anon.3 }
%union.anon.3 = type { i32 }
%struct._php_stream_statbuf = type { %struct.stat }
%struct.stat = type { i64, i64, i64, i32, i32, i32, i32, i64, i64, i64, i64, %struct.timespec, %struct.timespec, %struct.timespec, [3 x i64] }
%struct.timespec = type { i64, i64 }

; Function Attrs: nounwind uwtable
define internal i32 @php_stream_memory_stat(ptr noundef %0, ptr noundef %1) #0 {
  %3 = alloca ptr, align 8
  %4 = alloca ptr, align 8
  %5 = alloca i64, align 8
  %6 = alloca ptr, align 8
  store ptr %0, ptr %3, align 8
  store ptr %1, ptr %4, align 8
  store i64 0, ptr %5, align 8
  %7 = load ptr, ptr %3, align 8
  %8 = getelementptr inbounds %struct._php_stream, ptr %7, i32 0, i32 1
  %9 = load ptr, ptr %8, align 8
  store ptr %9, ptr %6, align 8
  %10 = load ptr, ptr %4, align 8
  call void @llvm.memset.p0.i64(ptr align 8 %10, i8 0, i64 144, i1 false)
  %11 = load ptr, ptr %6, align 8
  %12 = getelementptr inbounds %struct.php_stream_memory_data, ptr %11, i32 0, i32 2
  %13 = load i32, ptr %12, align 8
  %14 = and i32 %13, 1
  %15 = icmp ne i32 %14, 0
  %16 = select i1 %15, i32 292, i32 438
  %17 = load ptr, ptr %4, align 8
  %18 = getelementptr inbounds %struct._php_stream_statbuf, ptr %17, i32 0, i32 0
  %19 = getelementptr inbounds %struct.stat, ptr %18, i32 0, i32 3
  store i32 %16, ptr %19, align 8
  %20 = load ptr, ptr %6, align 8
  %21 = getelementptr inbounds %struct.php_stream_memory_data, ptr %20, i32 0, i32 0
  %22 = load ptr, ptr %21, align 8
  %23 = getelementptr inbounds %struct._zend_string, ptr %22, i32 0, i32 2
  %24 = load i64, ptr %23, align 8
  %25 = load ptr, ptr %4, align 8
  %26 = getelementptr inbounds %struct._php_stream_statbuf, ptr %25, i32 0, i32 0
  %27 = getelementptr inbounds %struct.stat, ptr %26, i32 0, i32 8
  store i64 %24, ptr %27, align 8
  %28 = load ptr, ptr %4, align 8
  %29 = getelementptr inbounds %struct._php_stream_statbuf, ptr %28, i32 0, i32 0
  %30 = getelementptr inbounds %struct.stat, ptr %29, i32 0, i32 3
  %31 = load i32, ptr %30, align 8
  %32 = or i32 %31, 32768
  store i32 %32, ptr %30, align 8
  %33 = load i64, ptr %5, align 8
  %34 = load ptr, ptr %4, align 8
  %35 = getelementptr inbounds %struct._php_stream_statbuf, ptr %34, i32 0, i32 0
  %36 = getelementptr inbounds %struct.stat, ptr %35, i32 0, i32 12
  %37 = getelementptr inbounds %struct.timespec, ptr %36, i32 0, i32 0
  store i64 %33, ptr %37, align 8
  %38 = load i64, ptr %5, align 8
  %39 = load ptr, ptr %4, align 8
  %40 = getelementptr inbounds %struct._php_stream_statbuf, ptr %39, i32 0, i32 0
  %41 = getelementptr inbounds %struct.stat, ptr %40, i32 0, i32 11
  %42 = getelementptr inbounds %struct.timespec, ptr %41, i32 0, i32 0
  store i64 %38, ptr %42, align 8
  %43 = load i64, ptr %5, align 8
  %44 = load ptr, ptr %4, align 8
  %45 = getelementptr inbounds %struct._php_stream_statbuf, ptr %44, i32 0, i32 0
  %46 = getelementptr inbounds %struct.stat, ptr %45, i32 0, i32 13
  %47 = getelementptr inbounds %struct.timespec, ptr %46, i32 0, i32 0
  store i64 %43, ptr %47, align 8
  %48 = load ptr, ptr %4, align 8
  %49 = getelementptr inbounds %struct._php_stream_statbuf, ptr %48, i32 0, i32 0
  %50 = getelementptr inbounds %struct.stat, ptr %49, i32 0, i32 2
  store i64 1, ptr %50, align 8
  %51 = load ptr, ptr %4, align 8
  %52 = getelementptr inbounds %struct._php_stream_statbuf, ptr %51, i32 0, i32 0
  %53 = getelementptr inbounds %struct.stat, ptr %52, i32 0, i32 7
  store i64 -1, ptr %53, align 8
  %54 = load ptr, ptr %4, align 8
  %55 = getelementptr inbounds %struct._php_stream_statbuf, ptr %54, i32 0, i32 0
  %56 = getelementptr inbounds %struct.stat, ptr %55, i32 0, i32 0
  store i64 12, ptr %56, align 8
  %57 = load ptr, ptr %4, align 8
  %58 = getelementptr inbounds %struct._php_stream_statbuf, ptr %57, i32 0, i32 0
  %59 = getelementptr inbounds %struct.stat, ptr %58, i32 0, i32 1
  store i64 0, ptr %59, align 8
  %60 = load ptr, ptr %4, align 8
  %61 = getelementptr inbounds %struct._php_stream_statbuf, ptr %60, i32 0, i32 0
  %62 = getelementptr inbounds %struct.stat, ptr %61, i32 0, i32 9
  store i64 -1, ptr %62, align 8
  %63 = load ptr, ptr %4, align 8
  %64 = getelementptr inbounds %struct._php_stream_statbuf, ptr %63, i32 0, i32 0
  %65 = getelementptr inbounds %struct.stat, ptr %64, i32 0, i32 10
  store i64 -1, ptr %65, align 8
  ret i32 0
}