; Function Attrs: mustprogress nofree norecurse nosync nounwind willreturn memory(read, argmem: readwrite, inaccessiblemem: none) uwtable
define internal noundef i32 @php_stream_memory_stat(ptr nocapture noundef readonly %0, ptr nocapture noundef writeonly %1) #4 {
  %3 = getelementptr inbounds i8, ptr %0, i64 8
  %4 = load ptr, ptr %3, align 8
  tail call void @llvm.memset.p0.i64(ptr noundef nonnull align 8 dereferenceable(144) %1, i8 0, i64 144, i1 false)
  %5 = getelementptr inbounds i8, ptr %4, i64 16
  %6 = load i32, ptr %5, align 8
  %7 = and i32 %6, 1
  %.not = icmp eq i32 %7, 0
  %8 = select i1 %.not, i32 438, i32 292
  %9 = getelementptr inbounds i8, ptr %1, i64 24
  store i32 %8, ptr %9, align 8
  %10 = load ptr, ptr %4, align 8
  %11 = getelementptr inbounds i8, ptr %10, i64 16
  %12 = load i64, ptr %11, align 8
  %13 = getelementptr inbounds i8, ptr %1, i64 48
  store i64 %12, ptr %13, align 8
  %14 = or disjoint i32 %8, 32768
  store i32 %14, ptr %9, align 8
  %15 = getelementptr inbounds i8, ptr %1, i64 88
  store i64 0, ptr %15, align 8
  %16 = getelementptr inbounds i8, ptr %1, i64 72
  store i64 0, ptr %16, align 8
  %17 = getelementptr inbounds i8, ptr %1, i64 104
  store i64 0, ptr %17, align 8
  %18 = getelementptr inbounds i8, ptr %1, i64 16
  store i64 1, ptr %18, align 8
  %19 = getelementptr inbounds i8, ptr %1, i64 40
  store i64 -1, ptr %19, align 8
  store i64 12, ptr %1, align 8
  %20 = getelementptr inbounds i8, ptr %1, i64 8
  store i64 0, ptr %20, align 8
  %21 = getelementptr inbounds i8, ptr %1, i64 56
  tail call void @llvm.memset.p0.i64(ptr noundef nonnull align 8 dereferenceable(16) %21, i8 -1, i64 16, i1 false)
  ret i32 0
}